target datalayout = "e-m:e-p270:32:32-p271:32:32-p272:64:64-i64:64-i128:128-f80:128-n8:16:32:64-S128"
target triple = "x86_64-pc-linux-gnu"

%struct.nghttp2_buf = type { ptr, ptr, ptr, ptr, ptr }
%struct.nghttp2_bufs = type { ptr, ptr, ptr, i64, i64, i64, i64, i64 }
%struct.nghttp2_buf_chain = type { ptr, %struct.nghttp2_buf }

; Function Attrs: nounwind uwtable
define dso_local void @nghttp2_buf_wrap_init(ptr noundef %0, ptr noundef %1, i64 noundef %2) #0 {
  %4 = alloca ptr, align 8
  %5 = alloca ptr, align 8
  %6 = alloca i64, align 8
  store ptr %0, ptr %4, align 8, !tbaa !4
  store ptr %1, ptr %5, align 8, !tbaa !17
  store i64 %2, ptr %6, align 8, !tbaa !15
  %7 = load ptr, ptr %5, align 8, !tbaa !17
  %8 = load ptr, ptr %4, align 8, !tbaa !4
  %9 = getelementptr inbounds nuw %struct.nghttp2_buf, ptr %8, i32 0, i32 1
  store ptr %7, ptr %9, align 8, !tbaa !11
  %10 = load ptr, ptr %4, align 8, !tbaa !4
  %11 = getelementptr inbounds nuw %struct.nghttp2_buf, ptr %10, i32 0, i32 4
  store ptr %7, ptr %11, align 8, !tbaa !14
  %12 = load ptr, ptr %4, align 8, !tbaa !4
  %13 = getelementptr inbounds nuw %struct.nghttp2_buf, ptr %12, i32 0, i32 3
  store ptr %7, ptr %13, align 8, !tbaa !13
  %14 = load ptr, ptr %4, align 8, !tbaa !4
  %15 = getelementptr inbounds nuw %struct.nghttp2_buf, ptr %14, i32 0, i32 2
  store ptr %7, ptr %15, align 8, !tbaa !12
  %16 = load ptr, ptr %4, align 8, !tbaa !4
  %17 = getelementptr inbounds nuw %struct.nghttp2_buf, ptr %16, i32 0, i32 0
  store ptr %7, ptr %17, align 8, !tbaa !8
  %18 = load i64, ptr %6, align 8, !tbaa !15
  %19 = icmp ne i64 %18, 0
  br i1 %19, label %20, label %26

20:                                               ; preds = %3
  %21 = load i64, ptr %6, align 8, !tbaa !15
  %22 = load ptr, ptr %4, align 8, !tbaa !4
  %23 = getelementptr inbounds nuw %struct.nghttp2_buf, ptr %22, i32 0, i32 1
  %24 = load ptr, ptr %23, align 8, !tbaa !11
  %25 = getelementptr inbounds nuw i8, ptr %24, i64 %21
  store ptr %25, ptr %23, align 8, !tbaa !11
  br label %26

26:                                               ; preds = %20, %3
  ret void
}

; Function Attrs: nounwind uwtable
define dso_local i32 @nghttp2_bufs_wrap_init(ptr noundef %0, ptr noundef %1, i64 noundef %2, ptr noundef %3) #0 {
  %5 = alloca i32, align 4
  %6 = alloca ptr, align 8
  %7 = alloca ptr, align 8
  %8 = alloca i64, align 8
  %9 = alloca ptr, align 8
  %10 = alloca ptr, align 8
  %11 = alloca i32, align 4
  store ptr %0, ptr %6, align 8, !tbaa !4
  store ptr %1, ptr %7, align 8, !tbaa !17
  store i64 %2, ptr %8, align 8, !tbaa !15
  store ptr %3, ptr %9, align 8, !tbaa !4
  call void @llvm.lifetime.start.p0(i64 8, ptr %10) #3
  %12 = load ptr, ptr %9, align 8, !tbaa !4
  %13 = call ptr @nghttp2_mem_malloc(ptr noundef %12, i64 noundef 48)
  store ptr %13, ptr %10, align 8, !tbaa !24
  %14 = load ptr, ptr %10, align 8, !tbaa !24
  %15 = icmp eq ptr %14, null
  br i1 %15, label %16, label %17

16:                                               ; preds = %4
  store i32 -901, ptr %5, align 4
  store i32 1, ptr %11, align 4
  br label %46

17:                                               ; preds = %4
  %18 = load ptr, ptr %10, align 8, !tbaa !24
  %19 = getelementptr inbounds nuw %struct.nghttp2_buf_chain, ptr %18, i32 0, i32 0
  store ptr null, ptr %19, align 8, !tbaa !36
  %20 = load ptr, ptr %10, align 8, !tbaa !24
  %21 = getelementptr inbounds nuw %struct.nghttp2_buf_chain, ptr %20, i32 0, i32 1
  %22 = load ptr, ptr %7, align 8, !tbaa !17
  %23 = load i64, ptr %8, align 8, !tbaa !15
  call void @nghttp2_buf_wrap_init(ptr noundef %21, ptr noundef %22, i64 noundef %23)
  %24 = load ptr, ptr %9, align 8, !tbaa !4
  %25 = load ptr, ptr %6, align 8, !tbaa !4
  %26 = getelementptr inbounds nuw %struct.nghttp2_bufs, ptr %25, i32 0, i32 2
  store ptr %24, ptr %26, align 8, !tbaa !20
  %27 = load ptr, ptr %6, align 8, !tbaa !4
  %28 = getelementptr inbounds nuw %struct.nghttp2_bufs, ptr %27, i32 0, i32 7
  store i64 0, ptr %28, align 8, !tbaa !23
  %29 = load ptr, ptr %10, align 8, !tbaa !24
  %30 = load ptr, ptr %6, align 8, !tbaa !4
  %31 = getelementptr inbounds nuw %struct.nghttp2_bufs, ptr %30, i32 0, i32 0
  store ptr %29, ptr %31, align 8, !tbaa !25
  %32 = load ptr, ptr %6, align 8, !tbaa !4
  %33 = getelementptr inbounds nuw %struct.nghttp2_bufs, ptr %32, i32 0, i32 0
  %34 = load ptr, ptr %33, align 8, !tbaa !25
  %35 = load ptr, ptr %6, align 8, !tbaa !4
  %36 = getelementptr inbounds nuw %struct.nghttp2_bufs, ptr %35, i32 0, i32 1
  store ptr %34, ptr %36, align 8, !tbaa !26
  %37 = load i64, ptr %8, align 8, !tbaa !15
  %38 = load ptr, ptr %6, align 8, !tbaa !4
  %39 = getelementptr inbounds nuw %struct.nghttp2_bufs, ptr %38, i32 0, i32 3
  store i64 %37, ptr %39, align 8, !tbaa !30
  %40 = load ptr, ptr %6, align 8, !tbaa !4
  %41 = getelementptr inbounds nuw %struct.nghttp2_bufs, ptr %40, i32 0, i32 5
  store i64 1, ptr %41, align 8, !tbaa !31
  %42 = load ptr, ptr %6, align 8, !tbaa !4
  %43 = getelementptr inbounds nuw %struct.nghttp2_bufs, ptr %42, i32 0, i32 4
  store i64 1, ptr %43, align 8, !tbaa !32
  %44 = load ptr, ptr %6, align 8, !tbaa !4
  %45 = getelementptr inbounds nuw %struct.nghttp2_bufs, ptr %44, i32 0, i32 6
  store i64 1, ptr %45, align 8, !tbaa !33
  store i32 0, ptr %5, align 4
  store i32 1, ptr %11, align 4
  br label %46

46:                                               ; preds = %17, %16
  call void @llvm.lifetime.end.p0(i64 8, ptr %10) #3
  %47 = load i32, ptr %5, align 4
  ret i32 %47
}